target datalayout = "e-m:e-p270:32:32-p271:32:32-p272:64:64-i64:64-i128:128-f80:128-n8:16:32:64-S128"
target triple = "x86_64-pc-linux-gnu"

@_ZTIN19OpenColorIO_v2_5dev9ExceptionE = external constant ptr
@.str.41 = private unnamed_addr constant [3 x i8] c"cg\00", align 1
@.str.42 = private unnamed_addr constant [9 x i8] c"glsl_1.2\00", align 1
@.str.43 = private unnamed_addr constant [9 x i8] c"glsl_1.3\00", align 1
@.str.44 = private unnamed_addr constant [9 x i8] c"glsl_4.0\00", align 1
@.str.45 = private unnamed_addr constant [12 x i8] c"glsl_es_1.0\00", align 1
@.str.46 = private unnamed_addr constant [12 x i8] c"glsl_es_3.0\00", align 1
@.str.47 = private unnamed_addr constant [12 x i8] c"hlsl_sm_5.0\00", align 1
@.str.48 = private unnamed_addr constant [6 x i8] c"msl_2\00", align 1
@.str.49 = private unnamed_addr constant [6 x i8] c"osl_1\00", align 1
@.str.50 = private unnamed_addr constant [33 x i8] c"Unsupported GPU shader language.\00", align 1

; Function Attrs: mustprogress uwtable
define noundef ptr @_ZN19OpenColorIO_v2_5dev19GpuLanguageToStringENS_11GpuLanguageE(i32 noundef %0) #6 personality ptr @__gxx_personality_v0 {
  %2 = alloca ptr, align 8
  %3 = alloca i32, align 4
  %4 = alloca ptr, align 8
  %5 = alloca i32, align 4
  store i32 %0, ptr %3, align 4, !tbaa !61
  %6 = load i32, ptr %3, align 4, !tbaa !61
  switch i32 %6, label %16 [
    i32 0, label %7
    i32 1, label %8
    i32 2, label %9
    i32 3, label %10
    i32 6, label %11
    i32 7, label %12
    i32 4, label %13
    i32 8, label %14
    i32 5, label %15
  ]

7:                                                ; preds = %1
  store ptr @.str.41, ptr %2, align 8
  br label %23

8:                                                ; preds = %1
  store ptr @.str.42, ptr %2, align 8
  br label %23

9:                                                ; preds = %1
  store ptr @.str.43, ptr %2, align 8
  br label %23

10:                                               ; preds = %1
  store ptr @.str.44, ptr %2, align 8
  br label %23

11:                                               ; preds = %1
  store ptr @.str.45, ptr %2, align 8
  br label %23

12:                                               ; preds = %1
  store ptr @.str.46, ptr %2, align 8
  br label %23

13:                                               ; preds = %1
  store ptr @.str.47, ptr %2, align 8
  br label %23

14:                                               ; preds = %1
  store ptr @.str.48, ptr %2, align 8
  br label %23

15:                                               ; preds = %1
  store ptr @.str.49, ptr %2, align 8
  br label %23

16:                                               ; preds = %1
  %17 = call ptr @__cxa_allocate_exception(i64 16) #3
  invoke void @_ZN19OpenColorIO_v2_5dev9ExceptionC1EPKc(ptr noundef nonnull align 8 dereferenceable(16) %17, ptr noundef @.str.50)
          to label %18 unwind label %19

18:                                               ; preds = %16
  call void @__cxa_throw(ptr %17, ptr @_ZTIN19OpenColorIO_v2_5dev9ExceptionE, ptr @_ZN19OpenColorIO_v2_5dev9ExceptionD1Ev) #18
  unreachable

19:                                               ; preds = %16
  %20 = landingpad { ptr, i32 }
          cleanup
  %21 = extractvalue { ptr, i32 } %20, 0
  store ptr %21, ptr %4, align 8
  %22 = extractvalue { ptr, i32 } %20, 1
  store i32 %22, ptr %5, align 4
  call void @__cxa_free_exception(ptr %17) #3
  br label %25

23:                                               ; preds = %15, %14, %13, %12, %11, %10, %9, %8, %7
  %24 = load ptr, ptr %2, align 8
  ret ptr %24

25:                                               ; preds = %19
  %26 = load ptr, ptr %4, align 8
  %27 = load i32, ptr %5, align 4
  %28 = insertvalue { ptr, i32 } poison, ptr %26, 0
  %29 = insertvalue { ptr, i32 } %28, i32 %27, 1
  resume { ptr, i32 } %29
}